target datalayout = "e-m:e-p270:32:32-p271:32:32-p272:64:64-i64:64-i128:128-f80:128-n8:16:32:64-S128"
target triple = "x86_64-pc-linux-gnu"

; Function Attrs: nounwind uwtable
define internal void @_path_get_XY(float noundef %0, float noundef %1, float noundef %2, float noundef %3, float noundef %4, float noundef %5, float noundef %6, float noundef %7, float noundef %8, ptr noundef %9, ptr noundef %10) #0 {
  %12 = alloca float, align 4
  %13 = alloca float, align 4
  %14 = alloca float, align 4
  %15 = alloca float, align 4
  %16 = alloca float, align 4
  %17 = alloca float, align 4
  %18 = alloca float, align 4
  %19 = alloca float, align 4
  %20 = alloca float, align 4
  %21 = alloca ptr, align 8
  %22 = alloca ptr, align 8
  %23 = alloca float, align 4
  %24 = alloca float, align 4
  %25 = alloca float, align 4
  %26 = alloca float, align 4
  %27 = alloca float, align 4
  store float %0, ptr %12, align 4, !tbaa !11
  store float %1, ptr %13, align 4, !tbaa !11
  store float %2, ptr %14, align 4, !tbaa !11
  store float %3, ptr %15, align 4, !tbaa !11
  store float %4, ptr %16, align 4, !tbaa !11
  store float %5, ptr %17, align 4, !tbaa !11
  store float %6, ptr %18, align 4, !tbaa !11
  store float %7, ptr %19, align 4, !tbaa !11
  store float %8, ptr %20, align 4, !tbaa !11
  store ptr %9, ptr %21, align 8, !tbaa !15
  store ptr %10, ptr %22, align 8, !tbaa !15
  call void @llvm.lifetime.start.p0(i64 4, ptr %23) #13
  %28 = load float, ptr %20, align 4, !tbaa !11
  %29 = fsub reassoc nsz arcp contract afn float 1.000000e+00, %28
  store float %29, ptr %23, align 4, !tbaa !11
  call void @llvm.lifetime.start.p0(i64 4, ptr %24) #13
  %30 = load float, ptr %23, align 4, !tbaa !11
  %31 = load float, ptr %23, align 4, !tbaa !11
  %32 = fmul reassoc nsz arcp contract afn float %30, %31
  %33 = load float, ptr %23, align 4, !tbaa !11
  %34 = fmul reassoc nsz arcp contract afn float %32, %33
  store float %34, ptr %24, align 4, !tbaa !11
  call void @llvm.lifetime.start.p0(i64 4, ptr %25) #13
  %35 = load float, ptr %20, align 4, !tbaa !11
  %36 = fmul reassoc nsz arcp contract afn float 3.000000e+00, %35
  %37 = load float, ptr %23, align 4, !tbaa !11
  %38 = fmul reassoc nsz arcp contract afn float %36, %37
  %39 = load float, ptr %23, align 4, !tbaa !11
  %40 = fmul reassoc nsz arcp contract afn float %38, %39
  store float %40, ptr %25, align 4, !tbaa !11
  call void @llvm.lifetime.start.p0(i64 4, ptr %26) #13
  %41 = load float, ptr %20, align 4, !tbaa !11
  %42 = fmul reassoc nsz arcp contract afn float 3.000000e+00, %41
  %43 = load float, ptr %20, align 4, !tbaa !11
  %44 = fmul reassoc nsz arcp contract afn float %42, %43
  %45 = load float, ptr %23, align 4, !tbaa !11
  %46 = fmul reassoc nsz arcp contract afn float %44, %45
  store float %46, ptr %26, align 4, !tbaa !11
  call void @llvm.lifetime.start.p0(i64 4, ptr %27) #13
  %47 = load float, ptr %20, align 4, !tbaa !11
  %48 = load float, ptr %20, align 4, !tbaa !11
  %49 = fmul reassoc nsz arcp contract afn float %47, %48
  %50 = load float, ptr %20, align 4, !tbaa !11
  %51 = fmul reassoc nsz arcp contract afn float %49, %50
  store float %51, ptr %27, align 4, !tbaa !11
  %52 = load float, ptr %12, align 4, !tbaa !11
  %53 = load float, ptr %24, align 4, !tbaa !11
  %54 = fmul reassoc nsz arcp contract afn float %52, %53
  %55 = load float, ptr %14, align 4, !tbaa !11
  %56 = load float, ptr %25, align 4, !tbaa !11
  %57 = fmul reassoc nsz arcp contract afn float %55, %56
  %58 = fadd reassoc nsz arcp contract afn float %54, %57
  %59 = load float, ptr %16, align 4, !tbaa !11
  %60 = load float, ptr %26, align 4, !tbaa !11
  %61 = fmul reassoc nsz arcp contract afn float %59, %60
  %62 = fadd reassoc nsz arcp contract afn float %58, %61
  %63 = load float, ptr %18, align 4, !tbaa !11
  %64 = load float, ptr %27, align 4, !tbaa !11
  %65 = fmul reassoc nsz arcp contract afn float %63, %64
  %66 = fadd reassoc nsz arcp contract afn float %62, %65
  %67 = load ptr, ptr %21, align 8, !tbaa !15
  store float %66, ptr %67, align 4, !tbaa !11
  %68 = load float, ptr %13, align 4, !tbaa !11
  %69 = load float, ptr %24, align 4, !tbaa !11
  %70 = fmul reassoc nsz arcp contract afn float %68, %69
  %71 = load float, ptr %15, align 4, !tbaa !11
  %72 = load float, ptr %25, align 4, !tbaa !11
  %73 = fmul reassoc nsz arcp contract afn float %71, %72
  %74 = fadd reassoc nsz arcp contract afn float %70, %73
  %75 = load float, ptr %17, align 4, !tbaa !11
  %76 = load float, ptr %26, align 4, !tbaa !11
  %77 = fmul reassoc nsz arcp contract afn float %75, %76
  %78 = fadd reassoc nsz arcp contract afn float %74, %77
  %79 = load float, ptr %19, align 4, !tbaa !11
  %80 = load float, ptr %27, align 4, !tbaa !11
  %81 = fmul reassoc nsz arcp contract afn float %79, %80
  %82 = fadd reassoc nsz arcp contract afn float %78, %81
  %83 = load ptr, ptr %22, align 8, !tbaa !15
  store float %82, ptr %83, align 4, !tbaa !11
  call void @llvm.lifetime.end.p0(i64 4, ptr %27) #13
  call void @llvm.lifetime.end.p0(i64 4, ptr %26) #13
  call void @llvm.lifetime.end.p0(i64 4, ptr %25) #13
  call void @llvm.lifetime.end.p0(i64 4, ptr %24) #13
  call void @llvm.lifetime.end.p0(i64 4, ptr %23) #13
  ret void
}

; Function Attrs: nounwind uwtable
define internal void @_path_border_get_XY(float noundef %0, float noundef %1, float noundef %2, float noundef %3, float noundef %4, float noundef %5, float noundef %6, float noundef %7, float noundef %8, float noundef %9, ptr noundef %10, ptr noundef %11, ptr noundef %12, ptr noundef %13) #0 {
  %15 = alloca float, align 4
  %16 = alloca float, align 4
  %17 = alloca float, align 4
  %18 = alloca float, align 4
  %19 = alloca float, align 4
  %20 = alloca float, align 4
  %21 = alloca float, align 4
  %22 = alloca float, align 4
  %23 = alloca float, align 4
  %24 = alloca float, align 4
  %25 = alloca ptr, align 8
  %26 = alloca ptr, align 8
  %27 = alloca ptr, align 8
  %28 = alloca ptr, align 8
  %29 = alloca double, align 8
  %30 = alloca double, align 8
  %31 = alloca double, align 8
  %32 = alloca double, align 8
  %33 = alloca double, align 8
  %34 = alloca double, align 8
  %35 = alloca double, align 8
  %36 = alloca double, align 8
  %37 = alloca double, align 8
  %38 = alloca double, align 8
  %39 = alloca i32, align 4
  %40 = alloca double, align 8
  store float %0, ptr %15, align 4, !tbaa !11
  store float %1, ptr %16, align 4, !tbaa !11
  store float %2, ptr %17, align 4, !tbaa !11
  store float %3, ptr %18, align 4, !tbaa !11
  store float %4, ptr %19, align 4, !tbaa !11
  store float %5, ptr %20, align 4, !tbaa !11
  store float %6, ptr %21, align 4, !tbaa !11
  store float %7, ptr %22, align 4, !tbaa !11
  store float %8, ptr %23, align 4, !tbaa !11
  store float %9, ptr %24, align 4, !tbaa !11
  store ptr %10, ptr %25, align 8, !tbaa !15
  store ptr %11, ptr %26, align 8, !tbaa !15
  store ptr %12, ptr %27, align 8, !tbaa !15
  store ptr %13, ptr %28, align 8, !tbaa !15
  %41 = load float, ptr %15, align 4, !tbaa !11
  %42 = load float, ptr %16, align 4, !tbaa !11
  %43 = load float, ptr %17, align 4, !tbaa !11
  %44 = load float, ptr %18, align 4, !tbaa !11
  %45 = load float, ptr %19, align 4, !tbaa !11
  %46 = load float, ptr %20, align 4, !tbaa !11
  %47 = load float, ptr %21, align 4, !tbaa !11
  %48 = load float, ptr %22, align 4, !tbaa !11
  %49 = load float, ptr %23, align 4, !tbaa !11
  %50 = load ptr, ptr %25, align 8, !tbaa !15
  %51 = load ptr, ptr %26, align 8, !tbaa !15
  call void @_path_get_XY(float noundef %41, float noundef %42, float noundef %43, float noundef %44, float noundef %45, float noundef %46, float noundef %47, float noundef %48, float noundef %49, ptr noundef %50, ptr noundef %51)
  call void @llvm.lifetime.start.p0(i64 8, ptr %29) #13
  %52 = load float, ptr %23, align 4, !tbaa !11
  %53 = fpext reassoc nsz arcp contract afn float %52 to double
  %54 = fsub reassoc nsz arcp contract afn double 1.000000e+00, %53
  store double %54, ptr %29, align 8, !tbaa !72
  call void @llvm.lifetime.start.p0(i64 8, ptr %30) #13
  %55 = load float, ptr %23, align 4, !tbaa !11
  %56 = fpext reassoc nsz arcp contract afn float %55 to double
  %57 = load float, ptr %23, align 4, !tbaa !11
  %58 = fpext reassoc nsz arcp contract afn float %57 to double
  %59 = fmul reassoc nsz arcp contract afn double %56, %58
  store double %59, ptr %30, align 8, !tbaa !72
  call void @llvm.lifetime.start.p0(i64 8, ptr %31) #13
  %60 = load double, ptr %29, align 8, !tbaa !72
  %61 = load double, ptr %29, align 8, !tbaa !72
  %62 = fmul reassoc nsz arcp contract afn double %60, %61
  store double %62, ptr %31, align 8, !tbaa !72
  call void @llvm.lifetime.start.p0(i64 8, ptr %32) #13
  %63 = load float, ptr %23, align 4, !tbaa !11
  %64 = fpext reassoc nsz arcp contract afn float %63 to double
  %65 = load double, ptr %29, align 8, !tbaa !72
  %66 = fmul reassoc nsz arcp contract afn double %64, %65
  store double %66, ptr %32, align 8, !tbaa !72
  call void @llvm.lifetime.start.p0(i64 8, ptr %33) #13
  %67 = load double, ptr %31, align 8, !tbaa !72
  %68 = fmul reassoc nsz arcp contract afn double 3.000000e+00, %67
  store double %68, ptr %33, align 8, !tbaa !72
  call void @llvm.lifetime.start.p0(i64 8, ptr %34) #13
  %69 = load double, ptr %31, align 8, !tbaa !72
  %70 = load double, ptr %32, align 8, !tbaa !72
  %71 = fmul reassoc nsz arcp contract afn double 2.000000e+00, %70
  %72 = fsub reassoc nsz arcp contract afn double %69, %71
  %73 = fmul reassoc nsz arcp contract afn double 3.000000e+00, %72
  store double %73, ptr %34, align 8, !tbaa !72
  call void @llvm.lifetime.start.p0(i64 8, ptr %35) #13
  %74 = load double, ptr %32, align 8, !tbaa !72
  %75 = fmul reassoc nsz arcp contract afn double 2.000000e+00, %74
  %76 = load double, ptr %30, align 8, !tbaa !72
  %77 = fsub reassoc nsz arcp contract afn double %75, %76
  %78 = fmul reassoc nsz arcp contract afn double 3.000000e+00, %77
  store double %78, ptr %35, align 8, !tbaa !72
  call void @llvm.lifetime.start.p0(i64 8, ptr %36) #13
  %79 = load double, ptr %30, align 8, !tbaa !72
  %80 = fmul reassoc nsz arcp contract afn double 3.000000e+00, %79
  store double %80, ptr %36, align 8, !tbaa !72
  call void @llvm.lifetime.start.p0(i64 8, ptr %37) #13
  %81 = load float, ptr %15, align 4, !tbaa !11
  %82 = fneg reassoc nsz arcp contract afn float %81
  %83 = fpext reassoc nsz arcp contract afn float %82 to double
  %84 = load double, ptr %33, align 8, !tbaa !72
  %85 = fmul reassoc nsz arcp contract afn double %83, %84
  %86 = load float, ptr %17, align 4, !tbaa !11
  %87 = fpext reassoc nsz arcp contract afn float %86 to double
  %88 = load double, ptr %34, align 8, !tbaa !72
  %89 = fmul reassoc nsz arcp contract afn double %87, %88
  %90 = fadd reassoc nsz arcp contract afn double %85, %89
  %91 = load float, ptr %19, align 4, !tbaa !11
  %92 = fpext reassoc nsz arcp contract afn float %91 to double
  %93 = load double, ptr %35, align 8, !tbaa !72
  %94 = fmul reassoc nsz arcp contract afn double %92, %93
  %95 = fadd reassoc nsz arcp contract afn double %90, %94
  %96 = load float, ptr %21, align 4, !tbaa !11
  %97 = fpext reassoc nsz arcp contract afn float %96 to double
  %98 = load double, ptr %36, align 8, !tbaa !72
  %99 = fmul reassoc nsz arcp contract afn double %97, %98
  %100 = fadd reassoc nsz arcp contract afn double %95, %99
  store double %100, ptr %37, align 8, !tbaa !72
  call void @llvm.lifetime.start.p0(i64 8, ptr %38) #13
  %101 = load float, ptr %16, align 4, !tbaa !11
  %102 = fneg reassoc nsz arcp contract afn float %101
  %103 = fpext reassoc nsz arcp contract afn float %102 to double
  %104 = load double, ptr %33, align 8, !tbaa !72
  %105 = fmul reassoc nsz arcp contract afn double %103, %104
  %106 = load float, ptr %18, align 4, !tbaa !11
  %107 = fpext reassoc nsz arcp contract afn float %106 to double
  %108 = load double, ptr %34, align 8, !tbaa !72
  %109 = fmul reassoc nsz arcp contract afn double %107, %108
  %110 = fadd reassoc nsz arcp contract afn double %105, %109
  %111 = load float, ptr %20, align 4, !tbaa !11
  %112 = fpext reassoc nsz arcp contract afn float %111 to double
  %113 = load double, ptr %35, align 8, !tbaa !72
  %114 = fmul reassoc nsz arcp contract afn double %112, %113
  %115 = fadd reassoc nsz arcp contract afn double %110, %114
  %116 = load float, ptr %22, align 4, !tbaa !11
  %117 = fpext reassoc nsz arcp contract afn float %116 to double
  %118 = load double, ptr %36, align 8, !tbaa !72
  %119 = fmul reassoc nsz arcp contract afn double %117, %118
  %120 = fadd reassoc nsz arcp contract afn double %115, %119
  store double %120, ptr %38, align 8, !tbaa !72
  %121 = load double, ptr %37, align 8, !tbaa !72
  %122 = fcmp reassoc nsz arcp contract afn oeq double %121, 0.000000e+00
  br i1 %122, label %123, label %129

123:                                              ; preds = %14
  %124 = load double, ptr %38, align 8, !tbaa !72
  %125 = fcmp reassoc nsz arcp contract afn oeq double %124, 0.000000e+00
  br i1 %125, label %126, label %129

126:                                              ; preds = %123
  %127 = load ptr, ptr %27, align 8, !tbaa !15
  store float 0xC7EFFFFFE0000000, ptr %127, align 4, !tbaa !11
  %128 = load ptr, ptr %28, align 8, !tbaa !15
  store float 0xC7EFFFFFE0000000, ptr %128, align 4, !tbaa !11
  store i32 1, ptr %39, align 4
  br label %163

129:                                              ; preds = %123, %14
  call void @llvm.lifetime.start.p0(i64 8, ptr %40) #13
  %130 = load double, ptr %37, align 8, !tbaa !72
  %131 = load double, ptr %37, align 8, !tbaa !72
  %132 = fmul reassoc nsz arcp contract afn double %130, %131
  %133 = load double, ptr %38, align 8, !tbaa !72
  %134 = load double, ptr %38, align 8, !tbaa !72
  %135 = fmul reassoc nsz arcp contract afn double %133, %134
  %136 = fadd reassoc nsz arcp contract afn double %132, %135
  %137 = call reassoc nsz arcp contract afn double @llvm.sqrt.f64(double %136)
  %138 = fdiv reassoc nsz arcp contract afn double 1.000000e+00, %137
  store double %138, ptr %40, align 8, !tbaa !72
  %139 = load ptr, ptr %25, align 8, !tbaa !15
  %140 = load float, ptr %139, align 4, !tbaa !11
  %141 = fpext reassoc nsz arcp contract afn float %140 to double
  %142 = load float, ptr %24, align 4, !tbaa !11
  %143 = fpext reassoc nsz arcp contract afn float %142 to double
  %144 = load double, ptr %38, align 8, !tbaa !72
  %145 = fmul reassoc nsz arcp contract afn double %143, %144
  %146 = load double, ptr %40, align 8, !tbaa !72
  %147 = fmul reassoc nsz arcp contract afn double %145, %146
  %148 = fadd reassoc nsz arcp contract afn double %141, %147
  %149 = fptrunc reassoc nsz arcp contract afn double %148 to float
  %150 = load ptr, ptr %27, align 8, !tbaa !15
  store float %149, ptr %150, align 4, !tbaa !11
  %151 = load ptr, ptr %26, align 8, !tbaa !15
  %152 = load float, ptr %151, align 4, !tbaa !11
  %153 = fpext reassoc nsz arcp contract afn float %152 to double
  %154 = load float, ptr %24, align 4, !tbaa !11
  %155 = fpext reassoc nsz arcp contract afn float %154 to double
  %156 = load double, ptr %37, align 8, !tbaa !72
  %157 = fmul reassoc nsz arcp contract afn double %155, %156
  %158 = load double, ptr %40, align 8, !tbaa !72
  %159 = fmul reassoc nsz arcp contract afn double %157, %158
  %160 = fsub reassoc nsz arcp contract afn double %153, %159
  %161 = fptrunc reassoc nsz arcp contract afn double %160 to float
  %162 = load ptr, ptr %28, align 8, !tbaa !15
  store float %161, ptr %162, align 4, !tbaa !11
  call void @llvm.lifetime.end.p0(i64 8, ptr %40) #13
  store i32 0, ptr %39, align 4
  br label %163

163:                                              ; preds = %129, %126
  call void @llvm.lifetime.end.p0(i64 8, ptr %38) #13
  call void @llvm.lifetime.end.p0(i64 8, ptr %37) #13
  call void @llvm.lifetime.end.p0(i64 8, ptr %36) #13
  call void @llvm.lifetime.end.p0(i64 8, ptr %35) #13
  call void @llvm.lifetime.end.p0(i64 8, ptr %34) #13
  call void @llvm.lifetime.end.p0(i64 8, ptr %33) #13
  call void @llvm.lifetime.end.p0(i64 8, ptr %32) #13
  call void @llvm.lifetime.end.p0(i64 8, ptr %31) #13
  call void @llvm.lifetime.end.p0(i64 8, ptr %30) #13
  call void @llvm.lifetime.end.p0(i64 8, ptr %29) #13
  %164 = load i32, ptr %39, align 4
  switch i32 %164, label %166 [
    i32 0, label %165
    i32 1, label %165
  ]

165:                                              ; preds = %163, %163
  ret void

166:                                              ; preds = %163
  unreachable
}