; Function Attrs: mustprogress nofree norecurse nosync nounwind willreturn memory(argmem: readwrite) uwtable
define internal fastcc void @_path_border_get_XY(float noundef %0, float noundef %1, float noundef %2, float noundef %3, float noundef %4, float noundef %5, float noundef %6, float noundef %7, float noundef %8, float noundef %9, ptr noundef nonnull captures(none) initializes((0, 4)) %10, ptr noundef nonnull captures(none) initializes((0, 4)) %11, ptr noundef nonnull writeonly captures(none) initializes((0, 4)) %12, ptr noundef nonnull writeonly captures(none) initializes((0, 4)) %13) unnamed_addr #0 {
  %15 = fsub reassoc nsz arcp contract afn float 1.000000e+00, %8
  %16 = fmul reassoc nsz arcp contract afn float %15, %15
  %17 = fmul reassoc nsz arcp contract afn float %16, %15
  %18 = fmul reassoc nsz arcp contract afn float %8, 3.000000e+00
  %19 = fmul reassoc nsz arcp contract afn float %16, %18
  %20 = fmul reassoc nsz arcp contract afn float %18, %8
  %21 = fmul reassoc nsz arcp contract afn float %20, %15
  %22 = fmul reassoc nsz arcp contract afn float %8, %8
  %23 = fmul reassoc nsz arcp contract afn float %22, %8
  %24 = fmul reassoc nsz arcp contract afn float %17, %0
  %25 = fmul reassoc nsz arcp contract afn float %19, %2
  %26 = fmul reassoc nsz arcp contract afn float %21, %4
  %27 = fmul reassoc nsz arcp contract afn float %23, %6
  %28 = fadd reassoc nsz arcp contract afn float %25, %27
  %29 = fadd reassoc nsz arcp contract afn float %28, %24
  %30 = fadd reassoc nsz arcp contract afn float %29, %26
  store float %30, ptr %10, align 4, !tbaa !6
  %31 = fmul reassoc nsz arcp contract afn float %17, %1
  %32 = fmul reassoc nsz arcp contract afn float %19, %3
  %33 = fmul reassoc nsz arcp contract afn float %21, %5
  %34 = fmul reassoc nsz arcp contract afn float %23, %7
  %35 = fadd reassoc nsz arcp contract afn float %32, %34
  %36 = fadd reassoc nsz arcp contract afn float %35, %31
  %37 = fadd reassoc nsz arcp contract afn float %36, %33
  store float %37, ptr %11, align 4, !tbaa !6
  %38 = fpext reassoc nsz arcp contract afn float %8 to double
  %39 = fsub reassoc nsz arcp contract afn double 1.000000e+00, %38
  %40 = fmul reassoc nsz arcp contract afn double %38, %38
  %41 = fmul reassoc nsz arcp contract afn double %39, %39
  %42 = fmul reassoc nsz arcp contract afn double %41, 3.000000e+00
  %43 = fmul reassoc nsz arcp contract afn double %38, 2.000000e+00
  %44 = fmul reassoc nsz arcp contract afn double %43, %39
  %45 = fsub reassoc nsz arcp contract afn double %41, %44
  %46 = fmul reassoc nsz arcp contract afn double %45, 3.000000e+00
  %47 = fsub reassoc nsz arcp contract afn double %44, %40
  %48 = fmul reassoc nsz arcp contract afn double %47, 3.000000e+00
  %49 = fmul reassoc nsz arcp contract afn double %40, 3.000000e+00
  %50 = fneg reassoc nsz arcp contract afn float %0
  %51 = fpext reassoc nsz arcp contract afn float %50 to double
  %52 = fmul reassoc nsz arcp contract afn double %42, %51
  %53 = fpext reassoc nsz arcp contract afn float %2 to double
  %54 = fmul reassoc nsz arcp contract afn double %46, %53
  %55 = fpext reassoc nsz arcp contract afn float %4 to double
  %56 = fmul reassoc nsz arcp contract afn double %48, %55
  %57 = fpext reassoc nsz arcp contract afn float %6 to double
  %58 = fmul reassoc nsz arcp contract afn double %49, %57
  %59 = fadd reassoc nsz arcp contract afn double %52, %58
  %60 = fadd reassoc nsz arcp contract afn double %59, %54
  %61 = fadd reassoc nsz arcp contract afn double %60, %56
  %62 = fneg reassoc nsz arcp contract afn float %1
  %63 = fpext reassoc nsz arcp contract afn float %62 to double
  %64 = fmul reassoc nsz arcp contract afn double %42, %63
  %65 = fpext reassoc nsz arcp contract afn float %3 to double
  %66 = fmul reassoc nsz arcp contract afn double %46, %65
  %67 = fpext reassoc nsz arcp contract afn float %5 to double
  %68 = fmul reassoc nsz arcp contract afn double %48, %67
  %69 = fpext reassoc nsz arcp contract afn float %7 to double
  %70 = fmul reassoc nsz arcp contract afn double %49, %69
  %71 = fadd reassoc nsz arcp contract afn double %64, %70
  %72 = fadd reassoc nsz arcp contract afn double %71, %66
  %73 = fadd reassoc nsz arcp contract afn double %72, %68
  %74 = fcmp reassoc nsz arcp contract afn oeq double %61, 0.000000e+00
  %75 = fcmp reassoc nsz arcp contract afn oeq double %73, 0.000000e+00
  %or.cond = select i1 %74, i1 %75, i1 false
  br i1 %or.cond, label %76, label %77

76:                                               ; preds = %14
  store float 0xC7EFFFFFE0000000, ptr %12, align 4, !tbaa !6
  br label %96

77:                                               ; preds = %14
  %78 = fmul reassoc nsz arcp contract afn double %61, %61
  %79 = fmul reassoc nsz arcp contract afn double %73, %73
  %80 = fadd reassoc nsz arcp contract afn double %78, %79
  %81 = tail call reassoc nsz arcp contract afn double @llvm.sqrt.f64(double %80)
  %82 = fdiv reassoc nsz arcp contract afn double 1.000000e+00, %81
  %83 = load float, ptr %10, align 4, !tbaa !6
  %84 = fpext reassoc nsz arcp contract afn float %83 to double
  %85 = fpext reassoc nsz arcp contract afn float %9 to double
  %86 = fmul reassoc nsz arcp contract afn double %73, %85
  %87 = fmul reassoc nsz arcp contract afn double %86, %82
  %88 = fadd reassoc nsz arcp contract afn double %87, %84
  %89 = fptrunc reassoc nsz arcp contract afn double %88 to float
  store float %89, ptr %12, align 4, !tbaa !6
  %90 = load float, ptr %11, align 4, !tbaa !6
  %91 = fpext reassoc nsz arcp contract afn float %90 to double
  %92 = fmul reassoc nsz arcp contract afn double %61, %85
  %93 = fmul reassoc nsz arcp contract afn double %92, %82
  %94 = fsub reassoc nsz arcp contract afn double %91, %93
  %95 = fptrunc reassoc nsz arcp contract afn double %94 to float
  br label %96

96:                                               ; preds = %77, %76
  %storemerge = phi float [ %95, %77 ], [ 0xC7EFFFFFE0000000, %76 ]
  store float %storemerge, ptr %13, align 4, !tbaa !6
  ret void
}